; Function Attrs: mustprogress uwtable
define hidden void @_ZN2dd11bdd_manager9mk_existsEjRKNS_3bddE(ptr noalias nocapture writeonly sret(%"class.dd::bdd") align 8 %agg.result, ptr noundef nonnull align 8 dereferenceable(728) %this, i32 noundef %v, ptr nocapture noundef nonnull readonly align 8 dereferenceable(16) %b) local_unnamed_addr #3 align 2 {
entry:
  tail call void @llvm.experimental.noalias.scope.decl(metadata !20)
  %0 = load i32, ptr %b, align 8, !noalias !20
  %m_var2level.i.i = getelementptr inbounds i8, ptr %this, i64 96
  %idxprom.i.i.i = zext i32 %v to i64
  %1 = load ptr, ptr %m_var2level.i.i, align 8, !noalias !20
  %arrayidx.i.i.i = getelementptr inbounds i32, ptr %1, i64 %idxprom.i.i.i
  %2 = load i32, ptr %arrayidx.i.i.i, align 4, !noalias !20
  %call2.i.i = tail call noundef i32 @_ZN2dd11bdd_manager12mk_quant_recEjjNS0_6bdd_opE(ptr noundef nonnull align 8 dereferenceable(728) %this, i32 noundef %2, i32 noundef %0, i32 noundef 3), !noalias !20
  store i32 %call2.i.i, ptr %agg.result, align 8, !alias.scope !20
  %m3.i.i = getelementptr inbounds i8, ptr %agg.result, i64 8
  store ptr %this, ptr %m3.i.i, align 8, !alias.scope !20
  %m_nodes.i.i.i = getelementptr inbounds i8, ptr %this, i64 8
  %3 = load ptr, ptr %m_nodes.i.i.i, align 8, !noalias !20
  %idxprom.i.i.i.i = zext i32 %call2.i.i to i64
  %arrayidx.i.i.i.i = getelementptr inbounds %"struct.dd::bdd_manager::bdd_node", ptr %3, i64 %idxprom.i.i.i.i
  %bf.load.i.i.i = load i32, ptr %arrayidx.i.i.i.i, align 4, !noalias !20
  %bf.clear.i.i.i = and i32 %bf.load.i.i.i, 1023
  %cmp.not.i.i.i = icmp eq i32 %bf.clear.i.i.i, 1023
  br i1 %cmp.not.i.i.i, label %if.end.i.i.i, label %if.then.i.i.i

if.then.i.i.i:                                    ; preds = %entry
  %inc.i.i.i = add i32 %bf.load.i.i.i, 1
  %bf.value.i.i.i = and i32 %inc.i.i.i, 1023
  %bf.clear7.i.i.i = and i32 %bf.load.i.i.i, -1024
  %bf.set.i.i.i = or disjoint i32 %bf.value.i.i.i, %bf.clear7.i.i.i
  store i32 %bf.set.i.i.i, ptr %arrayidx.i.i.i.i, align 4, !noalias !20
  br label %if.end.i.i.i

if.end.i.i.i:                                     ; preds = %if.then.i.i.i, %entry
  %m_free_nodes.i.i.i = getelementptr inbounds i8, ptr %this, i64 112
  %4 = load ptr, ptr %m_free_nodes.i.i.i, align 8, !noalias !20
  %cmp.i.i.i.i.i.i = icmp eq ptr %4, null
  br i1 %cmp.i.i.i.i.i.i, label %_ZN2dd11bdd_manager9mk_existsEjPKjRKNS_3bddE.exit, label %_ZNK6vectorIjLb0EjE3endEv.exit.i.i.i.i

_ZNK6vectorIjLb0EjE3endEv.exit.i.i.i.i:           ; preds = %if.end.i.i.i
  %arrayidx.i.i.i.i.i.i = getelementptr inbounds i8, ptr %4, i64 -4
  %5 = load i32, ptr %arrayidx.i.i.i.i.i.i, align 4, !noalias !20
  %6 = zext i32 %5 to i64
  %add.ptr.i.i.i.i.i = getelementptr inbounds i32, ptr %4, i64 %6
  %cmp.not3.not.i.i.i.i = icmp eq i32 %5, 0
  br i1 %cmp.not3.not.i.i.i.i, label %_ZN2dd11bdd_manager9mk_existsEjPKjRKNS_3bddE.exit, label %for.body.i.i.i.i

for.cond.i.i.i.i:                                 ; preds = %for.body.i.i.i.i
  %incdec.ptr.i.i.i.i = getelementptr inbounds i8, ptr %it.04.i.i.i.i, i64 4
  %cmp.not.not.i.i.i.i = icmp eq ptr %incdec.ptr.i.i.i.i, %add.ptr.i.i.i.i.i
  br i1 %cmp.not.not.i.i.i.i, label %_ZN2dd11bdd_manager9mk_existsEjPKjRKNS_3bddE.exit, label %for.body.i.i.i.i, !llvm.loop !19

for.body.i.i.i.i:                                 ; preds = %_ZNK6vectorIjLb0EjE3endEv.exit.i.i.i.i, %for.cond.i.i.i.i
  %it.04.i.i.i.i = phi ptr [ %incdec.ptr.i.i.i.i, %for.cond.i.i.i.i ], [ %4, %_ZNK6vectorIjLb0EjE3endEv.exit.i.i.i.i ]
  %7 = load i32, ptr %it.04.i.i.i.i, align 4, !noalias !20
  %cmp3.i.i.i.i = icmp eq i32 %7, %call2.i.i
  br i1 %cmp3.i.i.i.i, label %if.then9.i.i.i, label %for.cond.i.i.i.i

if.then9.i.i.i:                                   ; preds = %for.body.i.i.i.i
  tail call void @_Z26notify_assertion_violationPKciS0_(ptr noundef nonnull @.str.15, i32 noundef 186, ptr noundef nonnull @.str.16), !noalias !20
  tail call void @exit(i32 noundef 114) #26, !noalias !20
  unreachable

_ZN2dd11bdd_manager9mk_existsEjPKjRKNS_3bddE.exit: ; preds = %for.cond.i.i.i.i, %if.end.i.i.i, %_ZNK6vectorIjLb0EjE3endEv.exit.i.i.i.i
  ret void
}